target datalayout = "e-m:e-p270:32:32-p271:32:32-p272:64:64-i64:64-i128:128-f80:128-n8:16:32:64-S128"
target triple = "x86_64-unknown-linux-gnu"

%"class.absl::container_internal::HashSetResizeHelper" = type <{ ptr, i64, i8, [7 x i8] }>

; Function Attrs: mustprogress nounwind uwtable
define linkonce_odr dso_local noundef ptr @_ZN4absl18container_internal11SlotAddressEPvmm(ptr noundef %slot_array, i64 noundef %slot, i64 noundef %slot_size) #1 comdat {
entry:
  %slot_array.addr = alloca ptr, align 8
  %slot.addr = alloca i64, align 8
  %slot_size.addr = alloca i64, align 8
  store ptr %slot_array, ptr %slot_array.addr, align 8
  store i64 %slot, ptr %slot.addr, align 8
  store i64 %slot_size, ptr %slot_size.addr, align 8
  %0 = load ptr, ptr %slot_array.addr, align 8
  %1 = load i64, ptr %slot.addr, align 8
  %2 = load i64, ptr %slot_size.addr, align 8
  %mul = mul i64 %1, %2
  %add.ptr = getelementptr inbounds i8, ptr %0, i64 %mul
  ret ptr %add.ptr
}

; Function Attrs: mustprogress nounwind uwtable
define linkonce_odr dso_local void @_ZN4absl18container_internal29SanitizerUnpoisonMemoryRegionEPKvm(ptr noundef %m, i64 noundef %s) #1 comdat {
entry:
  %m.addr = alloca ptr, align 8
  %s.addr = alloca i64, align 8
  store ptr %m, ptr %m.addr, align 8
  store i64 %s, ptr %s.addr, align 8
  ret void
}

; Function Attrs: mustprogress uwtable
define dso_local void @_ZNK4absl18container_internal19HashSetResizeHelper43GrowIntoSingleGroupShuffleTransferableSlotsEPvS2_m(ptr noundef nonnull align 8 dereferenceable(17) %this, ptr noundef %old_slots, ptr noundef %new_slots, i64 noundef %slot_size) #0 align 2 {
entry:
  %this.addr = alloca ptr, align 8
  %old_slots.addr = alloca ptr, align 8
  %new_slots.addr = alloca ptr, align 8
  %slot_size.addr = alloca i64, align 8
  %half_old_capacity = alloca i64, align 8
  store ptr %this, ptr %this.addr, align 8
  store ptr %old_slots, ptr %old_slots.addr, align 8
  store ptr %new_slots, ptr %new_slots.addr, align 8
  store i64 %slot_size, ptr %slot_size.addr, align 8
  %this1 = load ptr, ptr %this.addr, align 8
  %old_capacity_ = getelementptr inbounds %"class.absl::container_internal::HashSetResizeHelper", ptr %this1, i32 0, i32 1
  %0 = load i64, ptr %old_capacity_, align 8
  %div = udiv i64 %0, 2
  store i64 %div, ptr %half_old_capacity, align 8
  %1 = load ptr, ptr %old_slots.addr, align 8
  %2 = load i64, ptr %slot_size.addr, align 8
  %old_capacity_2 = getelementptr inbounds %"class.absl::container_internal::HashSetResizeHelper", ptr %this1, i32 0, i32 1
  %3 = load i64, ptr %old_capacity_2, align 8
  %mul = mul i64 %2, %3
  call void @_ZN4absl18container_internal29SanitizerUnpoisonMemoryRegionEPKvm(ptr noundef %1, i64 noundef %mul)
  %4 = load ptr, ptr %new_slots.addr, align 8
  %5 = load ptr, ptr %old_slots.addr, align 8
  %6 = load i64, ptr %half_old_capacity, align 8
  %add = add i64 %6, 1
  %7 = load i64, ptr %slot_size.addr, align 8
  %call = call noundef ptr @_ZN4absl18container_internal11SlotAddressEPvmm(ptr noundef %5, i64 noundef %add, i64 noundef %7)
  %8 = load i64, ptr %slot_size.addr, align 8
  %9 = load i64, ptr %half_old_capacity, align 8
  %mul3 = mul i64 %8, %9
  call void @llvm.memcpy.p0.p0.i64(ptr align 1 %4, ptr align 1 %call, i64 %mul3, i1 false)
  %10 = load ptr, ptr %new_slots.addr, align 8
  %11 = load i64, ptr %half_old_capacity, align 8
  %add4 = add i64 %11, 1
  %12 = load i64, ptr %slot_size.addr, align 8
  %call5 = call noundef ptr @_ZN4absl18container_internal11SlotAddressEPvmm(ptr noundef %10, i64 noundef %add4, i64 noundef %12)
  %13 = load ptr, ptr %old_slots.addr, align 8
  %14 = load i64, ptr %slot_size.addr, align 8
  %15 = load i64, ptr %half_old_capacity, align 8
  %add6 = add i64 %15, 1
  %mul7 = mul i64 %14, %add6
  call void @llvm.memcpy.p0.p0.i64(ptr align 1 %call5, ptr align 1 %13, i64 %mul7, i1 false)
  ret void
}