; Function Attrs: mustprogress nofree norecurse nosync nounwind willreturn memory(argmem: readwrite) uwtable
define dso_local void @_ZNK4absl18container_internal19HashSetResizeHelper43GrowIntoSingleGroupShuffleTransferableSlotsEPvS2_m(ptr noundef nonnull readonly align 8 captures(none) dereferenceable(17) %this, ptr noundef readonly captures(none) %old_slots, ptr noundef writeonly captures(none) %new_slots, i64 noundef %slot_size) local_unnamed_addr #11 align 2 {
entry:
  %old_capacity_ = getelementptr inbounds nuw i8, ptr %this, i64 8
  %0 = load i64, ptr %old_capacity_, align 8
  %div11 = lshr i64 %0, 1
  %add = add nuw i64 %div11, 1
  %mul.i = mul i64 %add, %slot_size
  %add.ptr.i = getelementptr inbounds i8, ptr %old_slots, i64 %mul.i
  %mul3 = mul i64 %div11, %slot_size
  tail call void @llvm.memcpy.p0.p0.i64(ptr align 1 %new_slots, ptr align 1 %add.ptr.i, i64 %mul3, i1 false)
  %add.ptr.i13 = getelementptr inbounds i8, ptr %new_slots, i64 %mul.i
  tail call void @llvm.memcpy.p0.p0.i64(ptr align 1 %add.ptr.i13, ptr align 1 %old_slots, i64 %mul.i, i1 false)
  ret void
}